Turbo Assembler	 Version 4.1	    03/09/26 08:47:46	    Page 1
crack.asm



      1	0000			     .model tiny
      2	0000			     .code
      3				     org 100h
      4
      5	      =004A		     RED_YELL	     equ 4ah
      6	      =002A		     GREEN_YELL	     equ 2ah
      7	      =0007		     PRIME_DIGIT     equ 7h
      8
      9				     locals @@
     10
     11	0100  B4 0A		     start:	     mov ah, 0ah
     12	0102  BA 014Dr				     mov dx, offset buffer
     13	0105  CD 21				     int 21h
     14
     15	0107  E8 00AB				     call CalcPass
     16	010A  E8 00B8				     call CalcBuff
     17
     18	010D  A1 0163r				     mov ax, hash_pass
     19	0110  3B 06 0165r			     cmp ax, hash_buff
     20	0114  75 06				     jne @@not_eq
     21	0116  C6 06 0167r 01 90			     mov flag, 1h
     22
     23
     24	011C  80 3E 0167r 00	       @@not_eq:     cmp flag, 0h
     25	0121  74 0F				     je	@@no_access
     26	0123  BA 0168r				     mov dx, offset access
     27	0126  B4 09				     mov ah, 09h
     28	0128  CD 21				     int 21h
     29	012A  B4 2A				     mov ah, GREEN_YELL
     30	012C  E8 00CA				     call fill
     31	012F  EB 0D 90				     jmp @@end
     32
     33	0132  BA 018Er		       @@no_access:  mov dx, offset wrong
     34	0135  B4 09				     mov ah, 09h
     35	0137  CD 21				     int 21h
     36	0139  B4 4A				     mov ah, RED_YELL
     37	013B  E8 00BB				     call fill
     38
     39	013E  B8 4C00		       @@end:	     mov ax, 4c00h
     40	0141  CD 21				     int 21h
     41
     42	0143  63 6F 63 61 20 63	6F+  password	     db	'coca cola$'
     43	      6C 61 24
     44	014D  FF 00 14*(00)	     buffer	     db	0ffh, 0h, 20 DUP(0h)
     45	0163  0000		     hash_pass	     dw	0h
     46	0165  0000		     hash_buff	     dw	0h
     47	0167  00		     flag	     db	0h
     48	0168  52 69 67 68 74 20	70+  access	     db	'Right password	:)', 20	DUP(0h), '$'
     49	      61 73 73 77 6F 72	64+
     50	      20 3A 29 14*(00) 24
     51	018E  57 72 6F 6E 67 20	70+  wrong	     db	'Wrong password	>:(', 20 DUP(0h), '$'
     52	      61 73 73 77 6F 72	64+
     53	      20 3E 3A 28 14*(00) +
     54	      24
     55
     56	01B5			     CalcPass	     proc
     57
Turbo Assembler	 Version 4.1	    03/09/26 08:47:46	    Page 2
crack.asm



     58	01B5  BB 0143r				     mov bx, offset password
     59	01B8  E8 0031				     call GetLen
     60
     61	01BB  BB 0143r				     mov bx, offset password
     62	01BE  E8 0014				     call CalcHash
     63	01C1  A3 0163r				     mov hash_pass, ax
     64
     65	01C4  C3				     ret
     66	01C5					     endp
     67
     68
     69
     70	01C5			     CalcBuff	     proc
     71
     72	01C5  B5 00				     mov ch, 0h
     73	01C7  BB 014Dr				     mov bx, offset buffer
     74	01CA  43				     inc bx
     75	01CB  8A 0F				     mov cl, byte ptr [bx]
     76	01CD  43				     inc bx
     77
     78	01CE  E8 0004				     call CalcHash
     79	01D1  A3 0165r				     mov hash_buff, ax
     80
     81	01D4  C3				     ret
     82	01D5					     endp
     83
     84
     85
     86	01D5			     CalcHash	     proc
     87
     88	01D5  8B F3				     mov si, bx
     89	01D7  B8 0000				     mov ax, 0h
     90	01DA			       @@nxt_symb:
     91	01DA  8A 14				     mov dl, byte ptr [si]
     92	01DC  B6 00				     mov dh, 0h
     93	01DE  03 C2				     add ax, dx
     94	01E0  BB 0007				     mov bx, PRIME_DIGIT
     95	01E3  F7 E3				     mul bx
     96	01E5  46				     inc si
     97	01E6  49				     dec cx
     98	01E7  75 F1				     jne @@nxt_symb
     99
    100	01E9  8B DE				     mov bx, si
    101
    102	01EB  C3				     ret
    103	01EC					     endp
    104
    105	01EC			     GetLen	     proc
    106
    107	01EC  B9 0000				     mov cx, 0h
    108	01EF			       @@nxt_symb:
    109	01EF  80 3F 24				     cmp byte ptr [bx],	'$'
    110	01F2  74 04				     je	@@break
    111	01F4  43				     inc bx
    112	01F5  41				     inc cx
    113	01F6  EB F7				     jmp @@nxt_symb
    114
Turbo Assembler	 Version 4.1	    03/09/26 08:47:46	    Page 3
crack.asm



    115	01F8  C3		       @@break:	     ret
    116	01F9					     endp
    117
    118	01F9			     fill	     proc
    119
    120	01F9  8A F4				     mov dh, ah
    121	01FB  B8 B814				     mov ax, 0b814h
    122	01FE  8E C0				     mov es, ax
    123	0200  BB FFFF				     mov bx, -1h
    124	0203  B8 0870				     mov ax, 2160d
    125
    126	0206  83 C3 02		       @@reps:	     add bx, 2h
    127	0209  26: 88 37				     mov byte ptr es:[bx], dh
    128	020C  48				     dec ax
    129	020D  75 F7				     jne @@reps
    130
    131	020F  C3				     ret
    132	0210					     endp
    133
    134				     end start
Turbo Assembler	 Version 4.1	    03/09/26 08:47:46	    Page 4
Symbol Table




Symbol Name			  Type	 Value

??DATE				  Text	 "03/09/26"
??FILENAME			  Text	 "crack	  "
??TIME				  Text	 "08:47:46"
??VERSION			  Number 040A
@32BIT				  Text	 0
@@BREAK				  Near	 DGROUP:01F8
@@END				  Near	 DGROUP:013E
@@NOT_EQ			  Near	 DGROUP:011C
@@NO_ACCESS			  Near	 DGROUP:0132
@@NXT_SYMB			  Near	 DGROUP:01DA
@@NXT_SYMB			  Near	 DGROUP:01EF
@@REPS				  Near	 DGROUP:0206
@CODE				  Text	 DGROUP
@CODESIZE			  Text	 0
@CPU				  Text	 0101H
@CURSEG				  Text	 _TEXT
@DATA				  Text	 DGROUP
@DATASIZE			  Text	 0
@FILENAME			  Text	 CRACK
@INTERFACE			  Text	 000H
@MODEL				  Text	 1
@STACK				  Text	 DGROUP
@WORDSIZE			  Text	 2
ACCESS				  Byte	 DGROUP:0168
BUFFER				  Byte	 DGROUP:014D
CALCBUFF			  Near	 DGROUP:01C5
CALCHASH			  Near	 DGROUP:01D5
CALCPASS			  Near	 DGROUP:01B5
FILL				  Near	 DGROUP:01F9
FLAG				  Byte	 DGROUP:0167
GETLEN				  Near	 DGROUP:01EC
GREEN_YELL			  Number 002A
HASH_BUFF			  Word	 DGROUP:0165
HASH_PASS			  Word	 DGROUP:0163
PASSWORD			  Byte	 DGROUP:0143
PRIME_DIGIT			  Number 0007
RED_YELL			  Number 004A
START				  Near	 DGROUP:0100
WRONG				  Byte	 DGROUP:018E

Groups & Segments		  Bit Size Align  Combine Class

DGROUP				  Group
  _DATA				  16  0000 Word	  Public  DATA
  _TEXT				  16  0210 Word	  Public  CODE
