Turbo Assembler	 Version 4.1	    03/09/26 08:25:20	    Page 1
crack.asm



      1	0000			     .model tiny
      2	0000			     .code
      3				     org 100h
      4
      5	      =004A		     RED_YELL	     equ 4ah
      6	      =002A		     GREEN_YELL	     equ 2ah
      7
      8				     locals @@
      9
     10	0100  B4 0A		     start:	     mov ah, 0ah
     11	0102  BA 014Dr				     mov dx, offset buffer
     12	0105  CD 21				     int 21h
     13
     14	0107  E8 00A1				     call CalcPass
     15	010A  E8 00AE				     call CalcBuff
     16
     17	010D  A1 0159r				     mov ax, hash_pass
     18	0110  3B 06 015Br			     cmp ax, hash_buff
     19	0114  75 06				     jne @@not_eq
     20	0116  C6 06 015Dr 01 90			     mov flag, 1h
     21
     22
     23	011C  80 3E 015Dr 00	       @@not_eq:     cmp flag, 0h
     24	0121  74 0F				     je	@@no_access
     25	0123  BA 015Er				     mov dx, offset access
     26	0126  B4 09				     mov ah, 09h
     27	0128  CD 21				     int 21h
     28	012A  B4 2A				     mov ah, GREEN_YELL
     29	012C  E8 00B7				     call fill
     30	012F  EB 0D 90				     jmp @@end
     31
     32	0132  BA 0184r		       @@no_access:  mov dx, offset wrong
     33	0135  B4 09				     mov ah, 09h
     34	0137  CD 21				     int 21h
     35	0139  B4 4A				     mov ah, RED_YELL
     36	013B  E8 00A8				     call fill
     37
     38	013E  B8 4C00		       @@end:	     mov ax, 4c00h
     39	0141  CD 21				     int 21h
     40
     41	0143  63 6F 63 61 20 63	6F+  password	     db	'coca cola$'
     42	      6C 61 24
     43	014D  FF 00 0A*(00)	     buffer	     db	0ffh, 0h, 10 DUP(0h)
     44	0159  0000		     hash_pass	     dw	0h
     45	015B  0000		     hash_buff	     dw	0h
     46	015D  00		     flag	     db	0h
     47	015E  52 69 67 68 74 20	70+  access	     db	'Right password	:)', 20	DUP(0h), '$'
     48	      61 73 73 77 6F 72	64+
     49	      20 3A 29 14*(00) 24
     50	0184  57 72 6F 6E 67 20	70+  wrong	     db	'Wrong password	>:(', 20 DUP(0h), '$'
     51	      61 73 73 77 6F 72	64+
     52	      20 3E 3A 28 14*(00) +
     53	      24
     54
     55	01AB			     CalcPass	     proc
     56
     57	01AB  BB 0143r				     mov bx, offset password
Turbo Assembler	 Version 4.1	    03/09/26 08:25:20	    Page 2
crack.asm



     58	01AE  E8 0028				     call GetLen
     59
     60	01B1  BB 0143r				     mov bx, offset password
     61	01B4  E8 0014				     call CalcHash
     62	01B7  A3 0159r				     mov hash_pass, ax
     63
     64	01BA  C3				     ret
     65	01BB					     endp
     66
     67
     68
     69	01BB			     CalcBuff	     proc
     70
     71	01BB  B5 00				     mov ch, 0h
     72	01BD  BB 014Dr				     mov bx, offset buffer
     73	01C0  43				     inc bx
     74	01C1  8A 0F				     mov cl, byte ptr [bx]
     75	01C3  43				     inc bx
     76
     77	01C4  E8 0004				     call CalcHash
     78	01C7  A3 015Br				     mov hash_buff, ax
     79
     80	01CA  C3				     ret
     81	01CB					     endp
     82
     83
     84
     85	01CB			     CalcHash	     proc
     86
     87	01CB  B8 0000				     mov ax, 0h
     88	01CE  B6 00				     mov dh, 0h
     89	01D0			       @@nxt_symb:
     90	01D0  8A 17				     mov dl, byte ptr [bx]
     91	01D2  03 C2				     add ax, dx
     92	01D4  43				     inc bx
     93	01D5  49				     dec cx
     94	01D6  75 F8				     jne @@nxt_symb
     95
     96	01D8  C3				     ret
     97	01D9					     endp
     98
     99	01D9			     GetLen	     proc
    100
    101	01D9  B9 0000				     mov cx, 0h
    102	01DC			       @@nxt_symb:
    103	01DC  80 3F 24				     cmp byte ptr [bx],	'$'
    104	01DF  74 04				     je	@@break
    105	01E1  43				     inc bx
    106	01E2  41				     inc cx
    107	01E3  EB F7				     jmp @@nxt_symb
    108
    109	01E5  C3		       @@break:	     ret
    110	01E6					     endp
    111
    112	01E6			     fill	     proc
    113
    114	01E6  8A F4				     mov dh, ah
Turbo Assembler	 Version 4.1	    03/09/26 08:25:20	    Page 3
crack.asm



    115	01E8  B8 B814				     mov ax, 0b814h
    116	01EB  8E C0				     mov es, ax
    117	01ED  BB FFFF				     mov bx, -1h
    118	01F0  B8 0870				     mov ax, 2160d
    119
    120	01F3  83 C3 02		       @@reps:	     add bx, 2h
    121	01F6  26: 88 37				     mov byte ptr es:[bx], dh
    122	01F9  48				     dec ax
    123	01FA  75 F7				     jne @@reps
    124
    125	01FC  C3				     ret
    126	01FD					     endp
    127
    128				     end start
Turbo Assembler	 Version 4.1	    03/09/26 08:25:20	    Page 4
Symbol Table




Symbol Name			  Type	 Value

??DATE				  Text	 "03/09/26"
??FILENAME			  Text	 "crack	  "
??TIME				  Text	 "08:25:20"
??VERSION			  Number 040A
@32BIT				  Text	 0
@@BREAK				  Near	 DGROUP:01E5
@@END				  Near	 DGROUP:013E
@@NOT_EQ			  Near	 DGROUP:011C
@@NO_ACCESS			  Near	 DGROUP:0132
@@NXT_SYMB			  Near	 DGROUP:01D0
@@NXT_SYMB			  Near	 DGROUP:01DC
@@REPS				  Near	 DGROUP:01F3
@CODE				  Text	 DGROUP
@CODESIZE			  Text	 0
@CPU				  Text	 0101H
@CURSEG				  Text	 _TEXT
@DATA				  Text	 DGROUP
@DATASIZE			  Text	 0
@FILENAME			  Text	 CRACK
@INTERFACE			  Text	 000H
@MODEL				  Text	 1
@STACK				  Text	 DGROUP
@WORDSIZE			  Text	 2
ACCESS				  Byte	 DGROUP:015E
BUFFER				  Byte	 DGROUP:014D
CALCBUFF			  Near	 DGROUP:01BB
CALCHASH			  Near	 DGROUP:01CB
CALCPASS			  Near	 DGROUP:01AB
FILL				  Near	 DGROUP:01E6
FLAG				  Byte	 DGROUP:015D
GETLEN				  Near	 DGROUP:01D9
GREEN_YELL			  Number 002A
HASH_BUFF			  Word	 DGROUP:015B
HASH_PASS			  Word	 DGROUP:0159
PASSWORD			  Byte	 DGROUP:0143
RED_YELL			  Number 004A
START				  Near	 DGROUP:0100
WRONG				  Byte	 DGROUP:0184

Groups & Segments		  Bit Size Align  Combine Class

DGROUP				  Group
  _DATA				  16  0000 Word	  Public  DATA
  _TEXT				  16  01FD Word	  Public  CODE
