Turbo Assembler	 Version 4.1	    03/11/26 16:53:34	    Page 1
crack.asm



      1	0000			     .model tiny
      2	0000			     .code
      3				     org 100h
      4
      5	      =004A		     RED_YELL	     equ 4ah
      6	      =002A		     GREEN_YELL	     equ 2ah
      7	      =0007		     PRIME_DIGIT     equ 7h
      8
      9				     locals @@
     10
     11				     ;=====================================================
     12	0100  B4 0A		     start:	     mov ah, 0ah
     13	0102  BA 01BCr				     mov dx, offset buffer
     14	0105  CD 21				     int 21h
     15
     16	0107  E8 0039				     call CalcPass
     17	010A  E8 0046				     call CalcBuff
     18
     19	010D  A1 01DCr				     mov ax, hash_pass
     20	0110  3B 06 01DEr			     cmp ax, hash_buff
     21	0114  75 06				     jne @@not_eq
     22	0116  C6 06 01E0r 01 90			     mov flag, 1h
     23
     24	011C			       @@not_eq:
     25	011C  80 3E 01E0r 00			     cmp flag, 0h
     26	0121  74 0F				     je	@@no_access
     27	0123  BA 01E1r				     mov dx, offset access
     28	0126  B4 09				     mov ah, 09h
     29	0128  CD 21				     int 21h
     30	012A  B4 2A				     mov ah, GREEN_YELL
     31	012C  E8 0058				     call fill
     32	012F  EB 0D 90				     jmp @@end
     33
     34	0132			       @@no_access:
     35	0132  BA 0207r				     mov dx, offset wrong
     36	0135  B4 09				     mov ah, 09h
     37	0137  CD 21				     int 21h
     38	0139  B4 4A				     mov ah, RED_YELL
     39	013B  E8 0049				     call fill
     40
     41	013E			       @@end:
     42	013E  B8 4C00				     mov ax, 4c00h
     43	0141  CD 21				     int 21h
     44				     ;-----------------------------------------------------
     45
     46
     47
     48				     ;=====================================================
     49				     ; Calcing hash of password
     50				     ;=====================================================
     51	0143			     CalcPass	     proc
     52
     53	0143  BB 019Er				     mov bx, offset password
     54	0146  E8 0031				     call GetLen
     55
     56	0149  BB 019Er				     mov bx, offset password
     57	014C  E8 0014				     call CalcHash
Turbo Assembler	 Version 4.1	    03/11/26 16:53:34	    Page 2
crack.asm



     58	014F  A3 01DCr				     mov hash_pass, ax
     59
     60	0152  C3				     ret
     61	0153					     endp
     62				     ;-----------------------------------------------------
     63
     64
     65
     66				     ;=====================================================
     67				     ; Calcing hash of string from buffer
     68				     ;=====================================================
     69	0153			     CalcBuff	     proc
     70
     71	0153  B5 00				     mov ch, 0h
     72	0155  BB 01BCr				     mov bx, offset buffer
     73	0158  43				     inc bx
     74	0159  8A 0F				     mov cl, byte ptr [bx]
     75	015B  43				     inc bx
     76
     77	015C  E8 0004				     call CalcHash
     78	015F  A3 01DEr				     mov hash_buff, ax
     79
     80	0162  C3				     ret
     81	0163					     endp
     82				     ;-----------------------------------------------------
     83
     84
     85
     86				     ;=====================================================
     87				     ; Getting hash of string, which start in [BX], and
     88				     ; has length = CX
     89				     ;=====================================================
     90	0163			     CalcHash	     proc
     91
     92	0163  8B F3				     mov si, bx
     93	0165  B8 0000				     mov ax, 0h
     94	0168			       @@nxt_symb:
     95	0168  8A 14				     mov dl, byte ptr [si]
     96	016A  B6 00				     mov dh, 0h
     97	016C  03 C2				     add ax, dx
     98	016E  BB 0007				     mov bx, PRIME_DIGIT
     99	0171  F7 E3				     mul bx
    100	0173  46				     inc si
    101	0174  49				     dec cx
    102	0175  75 F1				     jne @@nxt_symb
    103
    104	0177  8B DE				     mov bx, si
    105
    106	0179  C3				     ret
    107	017A					     endp
    108				     ;-----------------------------------------------------
    109
    110
    111
    112				     ;=====================================================
    113				     ; Getting length of string, which ended '$'
    114				     ;=====================================================
Turbo Assembler	 Version 4.1	    03/11/26 16:53:34	    Page 3
crack.asm



    115	017A			     GetLen	     proc
    116
    117	017A  B9 0000				     mov cx, 0h
    118	017D			       @@nxt_symb:
    119	017D  80 3F 24				     cmp byte ptr [bx],	'$'
    120	0180  74 04				     je	@@break
    121	0182  43				     inc bx
    122	0183  41				     inc cx
    123	0184  EB F7				     jmp @@nxt_symb
    124
    125	0186  C3		       @@break:	     ret
    126	0187					     endp
    127				     ;-----------------------------------------------------
    128
    129
    130
    131				     ;=====================================================
    132				     ; Filling the entire screen in one	color (in AH)
    133				     ;=====================================================
    134	0187			     fill	     proc
    135
    136	0187  8A F4				     mov dh, ah
    137	0189  B8 B814				     mov ax, 0b814h
    138	018C  8E C0				     mov es, ax
    139	018E  BB FFFF				     mov bx, -1h
    140	0191  B8 0870				     mov ax, 2160d
    141
    142	0194  83 C3 02		       @@reps:	     add bx, 2h
    143	0197  26: 88 37				     mov byte ptr es:[bx], dh
    144	019A  48				     dec ax
    145	019B  75 F7				     jne @@reps
    146
    147	019D  C3				     ret
    148	019E					     endp
    149				     ;-----------------------------------------------------
    150
    151
    152	019E  72 6F 6E 61 6C 64	6F+  password	     db	'ronaldo better	than coca cola$'
    153	      20 62 65 74 74 65	72+
    154	      20 74 68 61 6E 20	63+
    155	      6F 63 61 20 63 6F	6C+
    156	      61 24
    157	01BC  FF 00 1E*(00)	     buffer	     db	0ffh, 0h, 30 DUP(0h)
    158	01DC  0000		     hash_pass	     dw	0h
    159	01DE  0000		     hash_buff	     dw	0h
    160	01E0  00		     flag	     db	0h
    161	01E1  41 63 63 65 73 73	20+  access	     db	'Access	granted	:)', 20	DUP(0h), '$'
    162	      67 72 61 6E 74 65	64+
    163	      20 3A 29 14*(00) 24
    164	0207  41 63 63 65 73 73	20+  wrong	     db	'Access	denied >:(', 20	DUP(0h), '$'
    165	      64 65 6E 69 65 64	20+
    166	      3E 3A 28 14*(00) 24
    167
    168				     end start
Turbo Assembler	 Version 4.1	    03/11/26 16:53:34	    Page 4
Symbol Table




Symbol Name			  Type	 Value

??DATE				  Text	 "03/11/26"
??FILENAME			  Text	 "crack	  "
??TIME				  Text	 "16:53:34"
??VERSION			  Number 040A
@32BIT				  Text	 0
@@BREAK				  Near	 DGROUP:0186
@@END				  Near	 DGROUP:013E
@@NOT_EQ			  Near	 DGROUP:011C
@@NO_ACCESS			  Near	 DGROUP:0132
@@NXT_SYMB			  Near	 DGROUP:0168
@@NXT_SYMB			  Near	 DGROUP:017D
@@REPS				  Near	 DGROUP:0194
@CODE				  Text	 DGROUP
@CODESIZE			  Text	 0
@CPU				  Text	 0101H
@CURSEG				  Text	 _TEXT
@DATA				  Text	 DGROUP
@DATASIZE			  Text	 0
@FILENAME			  Text	 CRACK
@INTERFACE			  Text	 000H
@MODEL				  Text	 1
@STACK				  Text	 DGROUP
@WORDSIZE			  Text	 2
ACCESS				  Byte	 DGROUP:01E1
BUFFER				  Byte	 DGROUP:01BC
CALCBUFF			  Near	 DGROUP:0153
CALCHASH			  Near	 DGROUP:0163
CALCPASS			  Near	 DGROUP:0143
FILL				  Near	 DGROUP:0187
FLAG				  Byte	 DGROUP:01E0
GETLEN				  Near	 DGROUP:017A
GREEN_YELL			  Number 002A
HASH_BUFF			  Word	 DGROUP:01DE
HASH_PASS			  Word	 DGROUP:01DC
PASSWORD			  Byte	 DGROUP:019E
PRIME_DIGIT			  Number 0007
RED_YELL			  Number 004A
START				  Near	 DGROUP:0100
WRONG				  Byte	 DGROUP:0207

Groups & Segments		  Bit Size Align  Combine Class

DGROUP				  Group
  _DATA				  16  0000 Word	  Public  DATA
  _TEXT				  16  022D Word	  Public  CODE
